; Function Attrs: mustprogress uwtable
define void @_ZN6google8protobuf4Enum5ClearEv(ptr noundef nonnull align 8 dereferenceable(104) %this) unnamed_addr #3 align 2 personality ptr @__gxx_personality_v0 {
entry:
  %0 = getelementptr inbounds i8, ptr %this, i64 16
  %current_size_.i.i = getelementptr inbounds i8, ptr %this, i64 32
  %1 = load i32, ptr %current_size_.i.i, align 8
  %cmp.i.i = icmp sgt i32 %1, 0
  br i1 %cmp.i.i, label %if.then.i.i, label %_ZN6google8protobuf16RepeatedPtrFieldINS0_9EnumValueEE5ClearEv.exit

if.then.i.i:                                      ; preds = %entry
  %enumvalue_ = getelementptr inbounds i8, ptr %this, i64 24
  %2 = load ptr, ptr %enumvalue_, align 8
  %3 = ptrtoint ptr %2 to i64
  %and.i.i.i.i.i = and i64 %3, 1
  %cmp.i.i.i.i.i = icmp eq i64 %and.i.i.i.i.i, 0
  %sub.i.i.i.i.i = add i64 %3, -1
  %4 = inttoptr i64 %sub.i.i.i.i.i to ptr
  %elements.i.i.i.i = getelementptr inbounds i8, ptr %4, i64 8
  %cond.i.i.i.i = select i1 %cmp.i.i.i.i.i, ptr %enumvalue_, ptr %elements.i.i.i.i
  %wide.trip.count.i.i.i = zext nneg i32 %1 to i64
  br label %do.body.i.i.i

do.body.i.i.i:                                    ; preds = %do.body.i.i.i, %if.then.i.i
  %indvars.iv.i.i.i = phi i64 [ %indvars.iv.next.i.i.i, %do.body.i.i.i ], [ 0, %if.then.i.i ]
  %indvars.iv.next.i.i.i = add nuw nsw i64 %indvars.iv.i.i.i, 1
  %arrayidx.i.i.i = getelementptr inbounds ptr, ptr %cond.i.i.i.i, i64 %indvars.iv.i.i.i
  %5 = load ptr, ptr %arrayidx.i.i.i, align 8
  %vtable.i.i.i.i = load ptr, ptr %5, align 8
  %vfn.i.i.i.i = getelementptr inbounds i8, ptr %vtable.i.i.i.i, i64 24
  %6 = load ptr, ptr %vfn.i.i.i.i, align 8
  tail call void %6(ptr noundef nonnull align 8 dereferenceable(16) %5)
  %exitcond.not.i.i.i = icmp eq i64 %indvars.iv.next.i.i.i, %wide.trip.count.i.i.i
  br i1 %exitcond.not.i.i.i, label %_ZN6google8protobuf8internal20RepeatedPtrFieldBase13ClearNonEmptyINS1_18GenericTypeHandlerINS0_11MessageLiteEEEEEvv.exit.i.i, label %do.body.i.i.i, !llvm.loop !4

_ZN6google8protobuf8internal20RepeatedPtrFieldBase13ClearNonEmptyINS1_18GenericTypeHandlerINS0_11MessageLiteEEEEEvv.exit.i.i: ; preds = %do.body.i.i.i
  store i32 0, ptr %current_size_.i.i, align 8
  br label %_ZN6google8protobuf16RepeatedPtrFieldINS0_9EnumValueEE5ClearEv.exit

_ZN6google8protobuf16RepeatedPtrFieldINS0_9EnumValueEE5ClearEv.exit: ; preds = %entry, %_ZN6google8protobuf8internal20RepeatedPtrFieldBase13ClearNonEmptyINS1_18GenericTypeHandlerINS0_11MessageLiteEEEEEvv.exit.i.i
  %current_size_.i.i1 = getelementptr inbounds i8, ptr %this, i64 56
  %7 = load i32, ptr %current_size_.i.i1, align 8
  %cmp.i.i2 = icmp sgt i32 %7, 0
  br i1 %cmp.i.i2, label %if.then.i.i3, label %_ZN6google8protobuf16RepeatedPtrFieldINS0_6OptionEE5ClearEv.exit

if.then.i.i3:                                     ; preds = %_ZN6google8protobuf16RepeatedPtrFieldINS0_9EnumValueEE5ClearEv.exit
  %options_ = getelementptr inbounds i8, ptr %this, i64 48
  %8 = load ptr, ptr %options_, align 8
  %9 = ptrtoint ptr %8 to i64
  %and.i.i.i.i.i4 = and i64 %9, 1
  %cmp.i.i.i.i.i5 = icmp eq i64 %and.i.i.i.i.i4, 0
  %sub.i.i.i.i.i6 = add i64 %9, -1
  %10 = inttoptr i64 %sub.i.i.i.i.i6 to ptr
  %elements.i.i.i.i7 = getelementptr inbounds i8, ptr %10, i64 8
  %cond.i.i.i.i8 = select i1 %cmp.i.i.i.i.i5, ptr %options_, ptr %elements.i.i.i.i7
  %wide.trip.count.i.i.i9 = zext nneg i32 %7 to i64
  br label %do.body.i.i.i10

do.body.i.i.i10:                                  ; preds = %do.body.i.i.i10, %if.then.i.i3
  %indvars.iv.i.i.i11 = phi i64 [ %indvars.iv.next.i.i.i12, %do.body.i.i.i10 ], [ 0, %if.then.i.i3 ]
  %indvars.iv.next.i.i.i12 = add nuw nsw i64 %indvars.iv.i.i.i11, 1
  %arrayidx.i.i.i13 = getelementptr inbounds ptr, ptr %cond.i.i.i.i8, i64 %indvars.iv.i.i.i11
  %11 = load ptr, ptr %arrayidx.i.i.i13, align 8
  %vtable.i.i.i.i14 = load ptr, ptr %11, align 8
  %vfn.i.i.i.i15 = getelementptr inbounds i8, ptr %vtable.i.i.i.i14, i64 24
  %12 = load ptr, ptr %vfn.i.i.i.i15, align 8
  tail call void %12(ptr noundef nonnull align 8 dereferenceable(16) %11)
  %exitcond.not.i.i.i16 = icmp eq i64 %indvars.iv.next.i.i.i12, %wide.trip.count.i.i.i9
  br i1 %exitcond.not.i.i.i16, label %_ZN6google8protobuf8internal20RepeatedPtrFieldBase13ClearNonEmptyINS1_18GenericTypeHandlerINS0_11MessageLiteEEEEEvv.exit.i.i17, label %do.body.i.i.i10, !llvm.loop !4

_ZN6google8protobuf8internal20RepeatedPtrFieldBase13ClearNonEmptyINS1_18GenericTypeHandlerINS0_11MessageLiteEEEEEvv.exit.i.i17: ; preds = %do.body.i.i.i10
  store i32 0, ptr %current_size_.i.i1, align 8
  br label %_ZN6google8protobuf16RepeatedPtrFieldINS0_6OptionEE5ClearEv.exit

_ZN6google8protobuf16RepeatedPtrFieldINS0_6OptionEE5ClearEv.exit: ; preds = %_ZN6google8protobuf16RepeatedPtrFieldINS0_9EnumValueEE5ClearEv.exit, %_ZN6google8protobuf8internal20RepeatedPtrFieldBase13ClearNonEmptyINS1_18GenericTypeHandlerINS0_11MessageLiteEEEEEvv.exit.i.i17
  %name_ = getelementptr inbounds i8, ptr %this, i64 72
  tail call void @_ZN6google8protobuf8internal14ArenaStringPtr12ClearToEmptyEv(ptr noundef nonnull align 8 dereferenceable(8) %name_)
  %edition_ = getelementptr inbounds i8, ptr %this, i64 80
  tail call void @_ZN6google8protobuf8internal14ArenaStringPtr12ClearToEmptyEv(ptr noundef nonnull align 8 dereferenceable(8) %edition_)
  %13 = load i32, ptr %0, align 8
  %and = and i32 %13, 1
  %tobool.not = icmp eq i32 %and, 0
  br i1 %tobool.not, label %if.end, label %if.then

if.then:                                          ; preds = %_ZN6google8protobuf16RepeatedPtrFieldINS0_6OptionEE5ClearEv.exit
  %source_context_ = getelementptr inbounds i8, ptr %this, i64 88
  %14 = load ptr, ptr %source_context_, align 8
  tail call void @_ZN6google8protobuf13SourceContext5ClearEv(ptr noundef nonnull align 8 dereferenceable(32) %14)
  br label %if.end

if.end:                                           ; preds = %if.then, %_ZN6google8protobuf16RepeatedPtrFieldINS0_6OptionEE5ClearEv.exit
  %syntax_ = getelementptr inbounds i8, ptr %this, i64 96
  store i32 0, ptr %syntax_, align 8
  store i32 0, ptr %0, align 8
  %_internal_metadata_ = getelementptr inbounds i8, ptr %this, i64 8
  %15 = load i64, ptr %_internal_metadata_, align 8
  %and.i = and i64 %15, 1
  %tobool.i.not = icmp eq i64 %and.i, 0
  br i1 %tobool.i.not, label %_ZN6google8protobuf8internal16InternalMetadata5ClearINS0_15UnknownFieldSetEEEvv.exit, label %if.then.i

if.then.i:                                        ; preds = %if.end
  tail call void @_ZN6google8protobuf8internal16InternalMetadata7DoClearINS0_15UnknownFieldSetEEEvv(ptr noundef nonnull align 8 dereferenceable(8) %_internal_metadata_)
  br label %_ZN6google8protobuf8internal16InternalMetadata5ClearINS0_15UnknownFieldSetEEEvv.exit

_ZN6google8protobuf8internal16InternalMetadata5ClearINS0_15UnknownFieldSetEEEvv.exit: ; preds = %if.then.i, %if.end
  ret void
}